target datalayout = "e-m:e-p270:32:32-p271:32:32-p272:64:64-i64:64-i128:128-f80:128-n8:16:32:64-S128"
target triple = "x86_64-pc-linux-gnu"

@_ZN2cvL12trilinearLUTE = internal global [32768 x i16] zeroinitializer, align 16

; Function Attrs: inlinehint mustprogress nounwind uwtable
define internal void @_ZN2cvL20trilinearInterpolateEiiiPKsRiS2_S2_(i32 noundef %0, i32 noundef %1, i32 noundef %2, ptr noundef %3, ptr noundef nonnull align 4 dereferenceable(4) %4, ptr noundef nonnull align 4 dereferenceable(4) %5, ptr noundef nonnull align 4 dereferenceable(4) %6) #5 {
  %8 = alloca i32, align 4
  %9 = alloca i32, align 4
  %10 = alloca i32, align 4
  %11 = alloca ptr, align 8
  %12 = alloca ptr, align 8
  %13 = alloca ptr, align 8
  %14 = alloca ptr, align 8
  %15 = alloca i32, align 4
  %16 = alloca i32, align 4
  %17 = alloca i32, align 4
  %18 = alloca ptr, align 8
  %19 = alloca [8 x i32], align 16
  %20 = alloca [8 x i32], align 16
  %21 = alloca [8 x i32], align 16
  %22 = alloca i32, align 4
  %23 = alloca i32, align 4
  %24 = alloca i32, align 4
  %25 = alloca i32, align 4
  %26 = alloca [8 x i32], align 16
  %27 = alloca i32, align 4
  store i32 %0, ptr %8, align 4, !tbaa !20
  store i32 %1, ptr %9, align 4, !tbaa !20
  store i32 %2, ptr %10, align 4, !tbaa !20
  store ptr %3, ptr %11, align 8, !tbaa !191
  store ptr %4, ptr %12, align 8, !tbaa !52
  store ptr %5, ptr %13, align 8, !tbaa !52
  store ptr %6, ptr %14, align 8, !tbaa !52
  call void @llvm.lifetime.start.p0(i64 4, ptr %15) #12
  %28 = load i32, ptr %8, align 4, !tbaa !20
  %29 = ashr i32 %28, 9
  store i32 %29, ptr %15, align 4, !tbaa !20
  call void @llvm.lifetime.start.p0(i64 4, ptr %16) #12
  %30 = load i32, ptr %9, align 4, !tbaa !20
  %31 = ashr i32 %30, 9
  store i32 %31, ptr %16, align 4, !tbaa !20
  call void @llvm.lifetime.start.p0(i64 4, ptr %17) #12
  %32 = load i32, ptr %10, align 4, !tbaa !20
  %33 = ashr i32 %32, 9
  store i32 %33, ptr %17, align 4, !tbaa !20
  br label %34

34:                                               ; preds = %7
  br label %35

35:                                               ; preds = %34
  br label %36

36:                                               ; preds = %35
  br label %37

37:                                               ; preds = %36
  br label %38

38:                                               ; preds = %37
  br label %39

39:                                               ; preds = %38
  br label %40

40:                                               ; preds = %39
  br label %41

41:                                               ; preds = %40
  br label %42

42:                                               ; preds = %41
  call void @llvm.lifetime.start.p0(i64 8, ptr %18) #12
  %43 = load ptr, ptr %11, align 8, !tbaa !191
  %44 = load i32, ptr %15, align 4, !tbaa !20
  %45 = mul nsw i32 24, %44
  %46 = load i32, ptr %16, align 4, !tbaa !20
  %47 = mul nsw i32 792, %46
  %48 = add nsw i32 %45, %47
  %49 = load i32, ptr %17, align 4, !tbaa !20
  %50 = mul nsw i32 26136, %49
  %51 = add nsw i32 %48, %50
  %52 = sext i32 %51 to i64
  %53 = getelementptr inbounds i16, ptr %43, i64 %52
  store ptr %53, ptr %18, align 8, !tbaa !191
  call void @llvm.lifetime.start.p0(i64 32, ptr %19) #12
  call void @llvm.lifetime.start.p0(i64 32, ptr %20) #12
  call void @llvm.lifetime.start.p0(i64 32, ptr %21) #12
  call void @llvm.lifetime.start.p0(i64 4, ptr %22) #12
  store i32 0, ptr %22, align 4, !tbaa !20
  br label %54

54:                                               ; preds = %88, %42
  %55 = load i32, ptr %22, align 4, !tbaa !20
  %56 = icmp slt i32 %55, 8
  br i1 %56, label %58, label %57

57:                                               ; preds = %54
  call void @llvm.lifetime.end.p0(i64 4, ptr %22) #12
  br label %91

58:                                               ; preds = %54
  %59 = load ptr, ptr %18, align 8, !tbaa !191
  %60 = load i32, ptr %22, align 4, !tbaa !20
  %61 = sext i32 %60 to i64
  %62 = getelementptr inbounds i16, ptr %59, i64 %61
  %63 = load i16, ptr %62, align 2, !tbaa !181
  %64 = sext i16 %63 to i32
  %65 = load i32, ptr %22, align 4, !tbaa !20
  %66 = sext i32 %65 to i64
  %67 = getelementptr inbounds [8 x i32], ptr %19, i64 0, i64 %66
  store i32 %64, ptr %67, align 4, !tbaa !20
  %68 = load ptr, ptr %18, align 8, !tbaa !191
  %69 = load i32, ptr %22, align 4, !tbaa !20
  %70 = add nsw i32 %69, 8
  %71 = sext i32 %70 to i64
  %72 = getelementptr inbounds i16, ptr %68, i64 %71
  %73 = load i16, ptr %72, align 2, !tbaa !181
  %74 = sext i16 %73 to i32
  %75 = load i32, ptr %22, align 4, !tbaa !20
  %76 = sext i32 %75 to i64
  %77 = getelementptr inbounds [8 x i32], ptr %20, i64 0, i64 %76
  store i32 %74, ptr %77, align 4, !tbaa !20
  %78 = load ptr, ptr %18, align 8, !tbaa !191
  %79 = load i32, ptr %22, align 4, !tbaa !20
  %80 = add nsw i32 %79, 16
  %81 = sext i32 %80 to i64
  %82 = getelementptr inbounds i16, ptr %78, i64 %81
  %83 = load i16, ptr %82, align 2, !tbaa !181
  %84 = sext i16 %83 to i32
  %85 = load i32, ptr %22, align 4, !tbaa !20
  %86 = sext i32 %85 to i64
  %87 = getelementptr inbounds [8 x i32], ptr %21, i64 0, i64 %86
  store i32 %84, ptr %87, align 4, !tbaa !20
  br label %88

88:                                               ; preds = %58
  %89 = load i32, ptr %22, align 4, !tbaa !20
  %90 = add nsw i32 %89, 1
  store i32 %90, ptr %22, align 4, !tbaa !20
  br label %54, !llvm.loop !384

91:                                               ; preds = %57
  call void @llvm.lifetime.start.p0(i64 4, ptr %23) #12
  %92 = load i32, ptr %8, align 4, !tbaa !20
  %93 = ashr i32 %92, 5
  %94 = and i32 %93, 15
  store i32 %94, ptr %23, align 4, !tbaa !20
  call void @llvm.lifetime.start.p0(i64 4, ptr %24) #12
  %95 = load i32, ptr %9, align 4, !tbaa !20
  %96 = ashr i32 %95, 5
  %97 = and i32 %96, 15
  store i32 %97, ptr %24, align 4, !tbaa !20
  call void @llvm.lifetime.start.p0(i64 4, ptr %25) #12
  %98 = load i32, ptr %10, align 4, !tbaa !20
  %99 = ashr i32 %98, 5
  %100 = and i32 %99, 15
  store i32 %100, ptr %25, align 4, !tbaa !20
  call void @llvm.lifetime.start.p0(i64 32, ptr %26) #12
  call void @llvm.lifetime.start.p0(i64 4, ptr %27) #12
  store i32 0, ptr %27, align 4, !tbaa !20
  br label %101

101:                                              ; preds = %123, %91
  %102 = load i32, ptr %27, align 4, !tbaa !20
  %103 = icmp slt i32 %102, 8
  br i1 %103, label %105, label %104

104:                                              ; preds = %101
  call void @llvm.lifetime.end.p0(i64 4, ptr %27) #12
  br label %126

105:                                              ; preds = %101
  %106 = load i32, ptr %23, align 4, !tbaa !20
  %107 = mul nsw i32 8, %106
  %108 = load i32, ptr %24, align 4, !tbaa !20
  %109 = mul nsw i32 128, %108
  %110 = add nsw i32 %107, %109
  %111 = load i32, ptr %25, align 4, !tbaa !20
  %112 = mul nsw i32 2048, %111
  %113 = add nsw i32 %110, %112
  %114 = load i32, ptr %27, align 4, !tbaa !20
  %115 = add nsw i32 %113, %114
  %116 = sext i32 %115 to i64
  %117 = getelementptr inbounds [32768 x i16], ptr @_ZN2cvL12trilinearLUTE, i64 0, i64 %116
  %118 = load i16, ptr %117, align 2, !tbaa !181
  %119 = sext i16 %118 to i32
  %120 = load i32, ptr %27, align 4, !tbaa !20
  %121 = sext i32 %120 to i64
  %122 = getelementptr inbounds [8 x i32], ptr %26, i64 0, i64 %121
  store i32 %119, ptr %122, align 4, !tbaa !20
  br label %123

123:                                              ; preds = %105
  %124 = load i32, ptr %27, align 4, !tbaa !20
  %125 = add nsw i32 %124, 1
  store i32 %125, ptr %27, align 4, !tbaa !20
  br label %101, !llvm.loop !385

126:                                              ; preds = %104
  %127 = getelementptr inbounds [8 x i32], ptr %19, i64 0, i64 0
  %128 = load i32, ptr %127, align 16, !tbaa !20
  %129 = getelementptr inbounds [8 x i32], ptr %26, i64 0, i64 0
  %130 = load i32, ptr %129, align 16, !tbaa !20
  %131 = mul nsw i32 %128, %130
  %132 = getelementptr inbounds [8 x i32], ptr %19, i64 0, i64 1
  %133 = load i32, ptr %132, align 4, !tbaa !20
  %134 = getelementptr inbounds [8 x i32], ptr %26, i64 0, i64 1
  %135 = load i32, ptr %134, align 4, !tbaa !20
  %136 = mul nsw i32 %133, %135
  %137 = add nsw i32 %131, %136
  %138 = getelementptr inbounds [8 x i32], ptr %19, i64 0, i64 2
  %139 = load i32, ptr %138, align 8, !tbaa !20
  %140 = getelementptr inbounds [8 x i32], ptr %26, i64 0, i64 2
  %141 = load i32, ptr %140, align 8, !tbaa !20
  %142 = mul nsw i32 %139, %141
  %143 = add nsw i32 %137, %142
  %144 = getelementptr inbounds [8 x i32], ptr %19, i64 0, i64 3
  %145 = load i32, ptr %144, align 4, !tbaa !20
  %146 = getelementptr inbounds [8 x i32], ptr %26, i64 0, i64 3
  %147 = load i32, ptr %146, align 4, !tbaa !20
  %148 = mul nsw i32 %145, %147
  %149 = add nsw i32 %143, %148
  %150 = getelementptr inbounds [8 x i32], ptr %19, i64 0, i64 4
  %151 = load i32, ptr %150, align 16, !tbaa !20
  %152 = getelementptr inbounds [8 x i32], ptr %26, i64 0, i64 4
  %153 = load i32, ptr %152, align 16, !tbaa !20
  %154 = mul nsw i32 %151, %153
  %155 = add nsw i32 %149, %154
  %156 = getelementptr inbounds [8 x i32], ptr %19, i64 0, i64 5
  %157 = load i32, ptr %156, align 4, !tbaa !20
  %158 = getelementptr inbounds [8 x i32], ptr %26, i64 0, i64 5
  %159 = load i32, ptr %158, align 4, !tbaa !20
  %160 = mul nsw i32 %157, %159
  %161 = add nsw i32 %155, %160
  %162 = getelementptr inbounds [8 x i32], ptr %19, i64 0, i64 6
  %163 = load i32, ptr %162, align 8, !tbaa !20
  %164 = getelementptr inbounds [8 x i32], ptr %26, i64 0, i64 6
  %165 = load i32, ptr %164, align 8, !tbaa !20
  %166 = mul nsw i32 %163, %165
  %167 = add nsw i32 %161, %166
  %168 = getelementptr inbounds [8 x i32], ptr %19, i64 0, i64 7
  %169 = load i32, ptr %168, align 4, !tbaa !20
  %170 = getelementptr inbounds [8 x i32], ptr %26, i64 0, i64 7
  %171 = load i32, ptr %170, align 4, !tbaa !20
  %172 = mul nsw i32 %169, %171
  %173 = add nsw i32 %167, %172
  %174 = load ptr, ptr %12, align 8, !tbaa !52
  store i32 %173, ptr %174, align 4, !tbaa !20
  %175 = getelementptr inbounds [8 x i32], ptr %20, i64 0, i64 0
  %176 = load i32, ptr %175, align 16, !tbaa !20
  %177 = getelementptr inbounds [8 x i32], ptr %26, i64 0, i64 0
  %178 = load i32, ptr %177, align 16, !tbaa !20
  %179 = mul nsw i32 %176, %178
  %180 = getelementptr inbounds [8 x i32], ptr %20, i64 0, i64 1
  %181 = load i32, ptr %180, align 4, !tbaa !20
  %182 = getelementptr inbounds [8 x i32], ptr %26, i64 0, i64 1
  %183 = load i32, ptr %182, align 4, !tbaa !20
  %184 = mul nsw i32 %181, %183
  %185 = add nsw i32 %179, %184
  %186 = getelementptr inbounds [8 x i32], ptr %20, i64 0, i64 2
  %187 = load i32, ptr %186, align 8, !tbaa !20
  %188 = getelementptr inbounds [8 x i32], ptr %26, i64 0, i64 2
  %189 = load i32, ptr %188, align 8, !tbaa !20
  %190 = mul nsw i32 %187, %189
  %191 = add nsw i32 %185, %190
  %192 = getelementptr inbounds [8 x i32], ptr %20, i64 0, i64 3
  %193 = load i32, ptr %192, align 4, !tbaa !20
  %194 = getelementptr inbounds [8 x i32], ptr %26, i64 0, i64 3
  %195 = load i32, ptr %194, align 4, !tbaa !20
  %196 = mul nsw i32 %193, %195
  %197 = add nsw i32 %191, %196
  %198 = getelementptr inbounds [8 x i32], ptr %20, i64 0, i64 4
  %199 = load i32, ptr %198, align 16, !tbaa !20
  %200 = getelementptr inbounds [8 x i32], ptr %26, i64 0, i64 4
  %201 = load i32, ptr %200, align 16, !tbaa !20
  %202 = mul nsw i32 %199, %201
  %203 = add nsw i32 %197, %202
  %204 = getelementptr inbounds [8 x i32], ptr %20, i64 0, i64 5
  %205 = load i32, ptr %204, align 4, !tbaa !20
  %206 = getelementptr inbounds [8 x i32], ptr %26, i64 0, i64 5
  %207 = load i32, ptr %206, align 4, !tbaa !20
  %208 = mul nsw i32 %205, %207
  %209 = add nsw i32 %203, %208
  %210 = getelementptr inbounds [8 x i32], ptr %20, i64 0, i64 6
  %211 = load i32, ptr %210, align 8, !tbaa !20
  %212 = getelementptr inbounds [8 x i32], ptr %26, i64 0, i64 6
  %213 = load i32, ptr %212, align 8, !tbaa !20
  %214 = mul nsw i32 %211, %213
  %215 = add nsw i32 %209, %214
  %216 = getelementptr inbounds [8 x i32], ptr %20, i64 0, i64 7
  %217 = load i32, ptr %216, align 4, !tbaa !20
  %218 = getelementptr inbounds [8 x i32], ptr %26, i64 0, i64 7
  %219 = load i32, ptr %218, align 4, !tbaa !20
  %220 = mul nsw i32 %217, %219
  %221 = add nsw i32 %215, %220
  %222 = load ptr, ptr %13, align 8, !tbaa !52
  store i32 %221, ptr %222, align 4, !tbaa !20
  %223 = getelementptr inbounds [8 x i32], ptr %21, i64 0, i64 0
  %224 = load i32, ptr %223, align 16, !tbaa !20
  %225 = getelementptr inbounds [8 x i32], ptr %26, i64 0, i64 0
  %226 = load i32, ptr %225, align 16, !tbaa !20
  %227 = mul nsw i32 %224, %226
  %228 = getelementptr inbounds [8 x i32], ptr %21, i64 0, i64 1
  %229 = load i32, ptr %228, align 4, !tbaa !20
  %230 = getelementptr inbounds [8 x i32], ptr %26, i64 0, i64 1
  %231 = load i32, ptr %230, align 4, !tbaa !20
  %232 = mul nsw i32 %229, %231
  %233 = add nsw i32 %227, %232
  %234 = getelementptr inbounds [8 x i32], ptr %21, i64 0, i64 2
  %235 = load i32, ptr %234, align 8, !tbaa !20
  %236 = getelementptr inbounds [8 x i32], ptr %26, i64 0, i64 2
  %237 = load i32, ptr %236, align 8, !tbaa !20
  %238 = mul nsw i32 %235, %237
  %239 = add nsw i32 %233, %238
  %240 = getelementptr inbounds [8 x i32], ptr %21, i64 0, i64 3
  %241 = load i32, ptr %240, align 4, !tbaa !20
  %242 = getelementptr inbounds [8 x i32], ptr %26, i64 0, i64 3
  %243 = load i32, ptr %242, align 4, !tbaa !20
  %244 = mul nsw i32 %241, %243
  %245 = add nsw i32 %239, %244
  %246 = getelementptr inbounds [8 x i32], ptr %21, i64 0, i64 4
  %247 = load i32, ptr %246, align 16, !tbaa !20
  %248 = getelementptr inbounds [8 x i32], ptr %26, i64 0, i64 4
  %249 = load i32, ptr %248, align 16, !tbaa !20
  %250 = mul nsw i32 %247, %249
  %251 = add nsw i32 %245, %250
  %252 = getelementptr inbounds [8 x i32], ptr %21, i64 0, i64 5
  %253 = load i32, ptr %252, align 4, !tbaa !20
  %254 = getelementptr inbounds [8 x i32], ptr %26, i64 0, i64 5
  %255 = load i32, ptr %254, align 4, !tbaa !20
  %256 = mul nsw i32 %253, %255
  %257 = add nsw i32 %251, %256
  %258 = getelementptr inbounds [8 x i32], ptr %21, i64 0, i64 6
  %259 = load i32, ptr %258, align 8, !tbaa !20
  %260 = getelementptr inbounds [8 x i32], ptr %26, i64 0, i64 6
  %261 = load i32, ptr %260, align 8, !tbaa !20
  %262 = mul nsw i32 %259, %261
  %263 = add nsw i32 %257, %262
  %264 = getelementptr inbounds [8 x i32], ptr %21, i64 0, i64 7
  %265 = load i32, ptr %264, align 4, !tbaa !20
  %266 = getelementptr inbounds [8 x i32], ptr %26, i64 0, i64 7
  %267 = load i32, ptr %266, align 4, !tbaa !20
  %268 = mul nsw i32 %265, %267
  %269 = add nsw i32 %263, %268
  %270 = load ptr, ptr %14, align 8, !tbaa !52
  store i32 %269, ptr %270, align 4, !tbaa !20
  %271 = load ptr, ptr %12, align 8, !tbaa !52
  %272 = load i32, ptr %271, align 4, !tbaa !20
  %273 = add nsw i32 %272, 2048
  %274 = ashr i32 %273, 12
  %275 = load ptr, ptr %12, align 8, !tbaa !52
  store i32 %274, ptr %275, align 4, !tbaa !20
  %276 = load ptr, ptr %13, align 8, !tbaa !52
  %277 = load i32, ptr %276, align 4, !tbaa !20
  %278 = add nsw i32 %277, 2048
  %279 = ashr i32 %278, 12
  %280 = load ptr, ptr %13, align 8, !tbaa !52
  store i32 %279, ptr %280, align 4, !tbaa !20
  %281 = load ptr, ptr %14, align 8, !tbaa !52
  %282 = load i32, ptr %281, align 4, !tbaa !20
  %283 = add nsw i32 %282, 2048
  %284 = ashr i32 %283, 12
  %285 = load ptr, ptr %14, align 8, !tbaa !52
  store i32 %284, ptr %285, align 4, !tbaa !20
  call void @llvm.lifetime.end.p0(i64 32, ptr %26) #12
  call void @llvm.lifetime.end.p0(i64 4, ptr %25) #12
  call void @llvm.lifetime.end.p0(i64 4, ptr %24) #12
  call void @llvm.lifetime.end.p0(i64 4, ptr %23) #12
  call void @llvm.lifetime.end.p0(i64 32, ptr %21) #12
  call void @llvm.lifetime.end.p0(i64 32, ptr %20) #12
  call void @llvm.lifetime.end.p0(i64 32, ptr %19) #12
  call void @llvm.lifetime.end.p0(i64 8, ptr %18) #12
  call void @llvm.lifetime.end.p0(i64 4, ptr %17) #12
  call void @llvm.lifetime.end.p0(i64 4, ptr %16) #12
  call void @llvm.lifetime.end.p0(i64 4, ptr %15) #12
  ret void
}