; Function Attrs: inlinehint mustprogress nofree norecurse nosync nounwind memory(read, argmem: readwrite, inaccessiblemem: none) uwtable
define internal fastcc void @_ZN2cvL20trilinearInterpolateEiiiPKsRiS2_S2_(i32 noundef %0, i32 noundef %1, i32 noundef %2, ptr noundef readonly captures(none) %3, ptr noundef nonnull align 4 captures(none) dereferenceable(4) %4, ptr noundef nonnull align 4 captures(none) dereferenceable(4) %5, ptr noundef nonnull align 4 captures(none) dereferenceable(4) %6) unnamed_addr #17 {
  %8 = alloca [8 x i32], align 16
  %9 = alloca [8 x i32], align 16
  %10 = alloca [8 x i32], align 16
  %11 = alloca [8 x i32], align 16
  %12 = ashr i32 %0, 9
  %13 = ashr i32 %1, 9
  %14 = ashr i32 %2, 9
  %15 = mul nsw i32 %12, 24
  %16 = mul nsw i32 %13, 792
  %17 = add nsw i32 %16, %15
  %18 = mul nsw i32 %14, 26136
  %19 = add nsw i32 %17, %18
  %20 = sext i32 %19 to i64
  %21 = getelementptr inbounds i16, ptr %3, i64 %20
  call void @llvm.lifetime.start.p0(i64 32, ptr nonnull %8) #22
  call void @llvm.lifetime.start.p0(i64 32, ptr nonnull %9) #22
  call void @llvm.lifetime.start.p0(i64 32, ptr nonnull %10) #22
  br label %32

22:                                               ; preds = %32
  call void @llvm.lifetime.start.p0(i64 32, ptr nonnull %11) #22
  %23 = lshr i32 %0, 2
  %24 = and i32 %23, 120
  %25 = shl i32 %1, 2
  %26 = and i32 %25, 1920
  %27 = or disjoint i32 %26, %24
  %28 = shl i32 %2, 6
  %29 = and i32 %28, 30720
  %30 = or disjoint i32 %27, %29
  %31 = zext nneg i32 %30 to i64
  br label %162

32:                                               ; preds = %7, %32
  %indvars.iv = phi i64 [ 0, %7 ], [ %indvars.iv.next, %32 ]
  %33 = getelementptr inbounds nuw i16, ptr %21, i64 %indvars.iv
  %34 = load i16, ptr %33, align 2, !tbaa !294
  %35 = sext i16 %34 to i32
  %36 = getelementptr inbounds nuw [8 x i32], ptr %8, i64 0, i64 %indvars.iv
  store i32 %35, ptr %36, align 4, !tbaa !8
  %37 = or disjoint i64 %indvars.iv, 8
  %38 = getelementptr inbounds nuw i16, ptr %21, i64 %37
  %39 = load i16, ptr %38, align 2, !tbaa !294
  %40 = sext i16 %39 to i32
  %41 = getelementptr inbounds nuw [8 x i32], ptr %9, i64 0, i64 %indvars.iv
  store i32 %40, ptr %41, align 4, !tbaa !8
  %42 = or disjoint i64 %indvars.iv, 16
  %43 = getelementptr inbounds nuw i16, ptr %21, i64 %42
  %44 = load i16, ptr %43, align 2, !tbaa !294
  %45 = sext i16 %44 to i32
  %46 = getelementptr inbounds nuw [8 x i32], ptr %10, i64 0, i64 %indvars.iv
  store i32 %45, ptr %46, align 4, !tbaa !8
  %indvars.iv.next = add nuw nsw i64 %indvars.iv, 1
  %exitcond.not = icmp eq i64 %indvars.iv.next, 8
  br i1 %exitcond.not, label %22, label %32, !llvm.loop !517

47:                                               ; preds = %162
  %48 = load i32, ptr %8, align 16, !tbaa !8
  %49 = load i32, ptr %11, align 16, !tbaa !8
  %50 = mul nsw i32 %49, %48
  %51 = getelementptr inbounds nuw i8, ptr %8, i64 4
  %52 = load i32, ptr %51, align 4, !tbaa !8
  %53 = getelementptr inbounds nuw i8, ptr %11, i64 4
  %54 = load i32, ptr %53, align 4, !tbaa !8
  %55 = mul nsw i32 %54, %52
  %56 = add nsw i32 %55, %50
  %57 = getelementptr inbounds nuw i8, ptr %8, i64 8
  %58 = load i32, ptr %57, align 8, !tbaa !8
  %59 = getelementptr inbounds nuw i8, ptr %11, i64 8
  %60 = load i32, ptr %59, align 8, !tbaa !8
  %61 = mul nsw i32 %60, %58
  %62 = add nsw i32 %56, %61
  %63 = getelementptr inbounds nuw i8, ptr %8, i64 12
  %64 = load i32, ptr %63, align 4, !tbaa !8
  %65 = getelementptr inbounds nuw i8, ptr %11, i64 12
  %66 = load i32, ptr %65, align 4, !tbaa !8
  %67 = mul nsw i32 %66, %64
  %68 = add nsw i32 %62, %67
  %69 = getelementptr inbounds nuw i8, ptr %8, i64 16
  %70 = load i32, ptr %69, align 16, !tbaa !8
  %71 = getelementptr inbounds nuw i8, ptr %11, i64 16
  %72 = load i32, ptr %71, align 16, !tbaa !8
  %73 = mul nsw i32 %72, %70
  %74 = add nsw i32 %68, %73
  %75 = getelementptr inbounds nuw i8, ptr %8, i64 20
  %76 = load i32, ptr %75, align 4, !tbaa !8
  %77 = getelementptr inbounds nuw i8, ptr %11, i64 20
  %78 = load i32, ptr %77, align 4, !tbaa !8
  %79 = mul nsw i32 %78, %76
  %80 = add nsw i32 %74, %79
  %81 = getelementptr inbounds nuw i8, ptr %8, i64 24
  %82 = load i32, ptr %81, align 8, !tbaa !8
  %83 = getelementptr inbounds nuw i8, ptr %11, i64 24
  %84 = load i32, ptr %83, align 8, !tbaa !8
  %85 = mul nsw i32 %84, %82
  %86 = add nsw i32 %80, %85
  %87 = getelementptr inbounds nuw i8, ptr %8, i64 28
  %88 = load i32, ptr %87, align 4, !tbaa !8
  %89 = getelementptr inbounds nuw i8, ptr %11, i64 28
  %90 = load i32, ptr %89, align 4, !tbaa !8
  %91 = mul nsw i32 %90, %88
  %92 = add nsw i32 %86, %91
  store i32 %92, ptr %4, align 4, !tbaa !8
  %93 = load i32, ptr %9, align 16, !tbaa !8
  %94 = mul nsw i32 %93, %49
  %95 = getelementptr inbounds nuw i8, ptr %9, i64 4
  %96 = load i32, ptr %95, align 4, !tbaa !8
  %97 = mul nsw i32 %96, %54
  %98 = add nsw i32 %97, %94
  %99 = getelementptr inbounds nuw i8, ptr %9, i64 8
  %100 = load i32, ptr %99, align 8, !tbaa !8
  %101 = mul nsw i32 %100, %60
  %102 = add nsw i32 %98, %101
  %103 = getelementptr inbounds nuw i8, ptr %9, i64 12
  %104 = load i32, ptr %103, align 4, !tbaa !8
  %105 = mul nsw i32 %104, %66
  %106 = add nsw i32 %102, %105
  %107 = getelementptr inbounds nuw i8, ptr %9, i64 16
  %108 = load i32, ptr %107, align 16, !tbaa !8
  %109 = mul nsw i32 %108, %72
  %110 = add nsw i32 %106, %109
  %111 = getelementptr inbounds nuw i8, ptr %9, i64 20
  %112 = load i32, ptr %111, align 4, !tbaa !8
  %113 = mul nsw i32 %112, %78
  %114 = add nsw i32 %110, %113
  %115 = getelementptr inbounds nuw i8, ptr %9, i64 24
  %116 = load i32, ptr %115, align 8, !tbaa !8
  %117 = mul nsw i32 %116, %84
  %118 = add nsw i32 %114, %117
  %119 = getelementptr inbounds nuw i8, ptr %9, i64 28
  %120 = load i32, ptr %119, align 4, !tbaa !8
  %121 = mul nsw i32 %120, %90
  %122 = add nsw i32 %118, %121
  store i32 %122, ptr %5, align 4, !tbaa !8
  %123 = load i32, ptr %10, align 16, !tbaa !8
  %124 = mul nsw i32 %123, %49
  %125 = getelementptr inbounds nuw i8, ptr %10, i64 4
  %126 = load i32, ptr %125, align 4, !tbaa !8
  %127 = mul nsw i32 %126, %54
  %128 = add nsw i32 %127, %124
  %129 = getelementptr inbounds nuw i8, ptr %10, i64 8
  %130 = load i32, ptr %129, align 8, !tbaa !8
  %131 = mul nsw i32 %130, %60
  %132 = add nsw i32 %128, %131
  %133 = getelementptr inbounds nuw i8, ptr %10, i64 12
  %134 = load i32, ptr %133, align 4, !tbaa !8
  %135 = mul nsw i32 %134, %66
  %136 = add nsw i32 %132, %135
  %137 = getelementptr inbounds nuw i8, ptr %10, i64 16
  %138 = load i32, ptr %137, align 16, !tbaa !8
  %139 = mul nsw i32 %138, %72
  %140 = add nsw i32 %136, %139
  %141 = getelementptr inbounds nuw i8, ptr %10, i64 20
  %142 = load i32, ptr %141, align 4, !tbaa !8
  %143 = mul nsw i32 %142, %78
  %144 = add nsw i32 %140, %143
  %145 = getelementptr inbounds nuw i8, ptr %10, i64 24
  %146 = load i32, ptr %145, align 8, !tbaa !8
  %147 = mul nsw i32 %146, %84
  %148 = add nsw i32 %144, %147
  %149 = getelementptr inbounds nuw i8, ptr %10, i64 28
  %150 = load i32, ptr %149, align 4, !tbaa !8
  %151 = mul nsw i32 %150, %90
  %152 = add nsw i32 %148, %151
  store i32 %152, ptr %6, align 4, !tbaa !8
  %153 = load i32, ptr %4, align 4, !tbaa !8
  %154 = add nsw i32 %153, 2048
  %155 = ashr i32 %154, 12
  store i32 %155, ptr %4, align 4, !tbaa !8
  %156 = load i32, ptr %5, align 4, !tbaa !8
  %157 = add nsw i32 %156, 2048
  %158 = ashr i32 %157, 12
  store i32 %158, ptr %5, align 4, !tbaa !8
  %159 = load i32, ptr %6, align 4, !tbaa !8
  %160 = add nsw i32 %159, 2048
  %161 = ashr i32 %160, 12
  store i32 %161, ptr %6, align 4, !tbaa !8
  call void @llvm.lifetime.end.p0(i64 32, ptr nonnull %11) #22
  call void @llvm.lifetime.end.p0(i64 32, ptr nonnull %10) #22
  call void @llvm.lifetime.end.p0(i64 32, ptr nonnull %9) #22
  call void @llvm.lifetime.end.p0(i64 32, ptr nonnull %8) #22
  ret void

162:                                              ; preds = %22, %162
  %indvars.iv40 = phi i64 [ 0, %22 ], [ %indvars.iv.next41, %162 ]
  %163 = or disjoint i64 %indvars.iv40, %31
  %164 = getelementptr inbounds nuw [32768 x i16], ptr @_ZN2cvL12trilinearLUTE, i64 0, i64 %163
  %165 = load i16, ptr %164, align 2, !tbaa !294
  %166 = sext i16 %165 to i32
  %167 = getelementptr inbounds nuw [8 x i32], ptr %11, i64 0, i64 %indvars.iv40
  store i32 %166, ptr %167, align 4, !tbaa !8
  %indvars.iv.next41 = add nuw nsw i64 %indvars.iv40, 1
  %exitcond43.not = icmp eq i64 %indvars.iv.next41, 8
  br i1 %exitcond43.not, label %47, label %162, !llvm.loop !518
}